Certificate:
    Data:
        Version: 3 (0x2)
        Serial Number: 0 (0x0)
        Signature Algorithm: ecdsa-with-SHA256
        Issuer: C=IT, ST=Italia, L=Roma, O=Ministero della Salute
        Validity
            Not Before: Aug 16 15:41:55 2023 GMT
            Not After : Feb 12 15:41:55 2024 GMT
        Subject: nome=Andrea Vincenzo/cognome=Ricciardi/sesso=M/data_di_nascita=20-03-2001/luogo_di_nascita=Salerno/provincia_di_nascita=SA/codice_fiscale=RCCNRV01C20H703U/tampone=NULL/vaccino=BioNTech\/Pfizer/organizzazione=Ministero della Salute
        Subject Public Key Info:
            Public Key Algorithm: id-ecPublicKey
                Public-Key: (256 bit)
                pub:
                    04:3c:d9:ac:40:44:d2:cc:42:8c:77:61:5f:de:28:
                    99:41:7c:ed:f5:e0:13:9a:a3:13:ae:5f:27:7e:f9:
                    a8:df:61:2d:e3:75:7c:2a:1e:d8:78:59:75:a3:b8:
                    20:47:99:0a:8f:aa:0d:8d:b1:28:d6:20:d7:1d:13:
                    74:27:61:3b:53
                ASN1 OID: prime256v1
                NIST CURVE: P-256
        X509v3 extensions:
            X509v3 Basic Constraints: 
                CA:TRUE
            X509v3 Subject Key Identifier: 
                9E:CE:3C:40:49:68:34:B6:7C:B1:94:B4:83:47:C9:DB:79:87:B9:A8
            X509v3 Authority Key Identifier: 
                4A:E7:2E:E3:8C:83:B9:88:98:AD:40:16:1E:17:2B:A6:82:32:34:AE
    Signature Algorithm: ecdsa-with-SHA256
    Signature Value:
        30:46:02:21:00:d0:b3:67:ef:cd:8b:5c:be:da:f8:94:65:a5:
        ed:e2:5e:48:73:51:1f:f7:70:5c:7a:4b:f8:88:a2:8b:8f:1f:
        0f:02:21:00:93:14:a1:fb:ee:b1:a4:59:66:37:8b:3f:65:ba:
        12:05:fd:59:1c:92:c6:85:60:20:9b:32:5a:14:04:d2:7e:51
-----BEGIN CERTIFICATE-----
MIICazCCAhCgAwIBAgIBADAKBggqhkjOPQQDAjBOMQswCQYDVQQGEwJJVDEPMA0G
A1UECAwGSXRhbGlhMQ0wCwYDVQQHDARSb21hMR8wHQYDVQQKDBZNaW5pc3Rlcm8g
ZGVsbGEgU2FsdXRlMB4XDTIzMDgxNjE1NDE1NVoXDTI0MDIxMjE1NDE1NVowgdwx
GTAXBgQqAwEBDA9BbmRyZWEgVmluY2Vuem8xEzARBgQqAwECDAlSaWNjaWFyZGkx
CzAJBgQqAwEDDAFNMRQwEgYEKgMBBAwKMjAtMDMtMjAwMTERMA8GBCoDAQUMB1Nh
bGVybm8xDDAKBgQqAwEGDAJTQTEaMBgGBCoDAQcMEFJDQ05SVjAxQzIwSDcwM1Ux
DjAMBgQqAwIBDAROVUxMMRkwFwYEKgMCAgwPQmlvTlRlY2gvUGZpemVyMR8wHQYD
KgMDDBZNaW5pc3Rlcm8gZGVsbGEgU2FsdXRlMFkwEwYHKoZIzj0CAQYIKoZIzj0D
AQcDQgAEPNmsQETSzEKMd2Ff3iiZQXzt9eATmqMTrl8nfvmo32Et43V8Kh7YeFl1
o7ggR5kKj6oNjbEo1iDXHRN0J2E7U6NQME4wDAYDVR0TBAUwAwEB/zAdBgNVHQ4E
FgQUns48QEloNLZ8sZS0g0fJ23mHuagwHwYDVR0jBBgwFoAUSucu44yDuYiYrUAW
HhcrpoIyNK4wCgYIKoZIzj0EAwIDSQAwRgIhANCzZ+/Ni1y+2viUZaXt4l5Ic1Ef
93Bcekv4iKKLjx8PAiEAkxSh++6xpFlmN4s/ZboSBf1ZHJLGhWAgmzJaFATSflE=
-----END CERTIFICATE-----
