Certificate:
    Data:
        Version: 3 (0x2)
        Serial Number: 1 (0x1)
        Signature Algorithm: ecdsa-with-SHA256
        Issuer: C=IT, ST=Italia, L=Roma, O=Ministero della Salute, OU=ME, CN=localhost
        Validity
            Not Before: Aug 21 10:26:03 2023 GMT
            Not After : Aug 20 10:26:03 2024 GMT
        Subject: C=IT, ST=Italia, L=Roma, O=Agenzia delle Dogane e dei Monopoli, OU=ADM, CN=localhost
        Subject Public Key Info:
            Public Key Algorithm: id-ecPublicKey
                Public-Key: (256 bit)
                pub:
                    04:98:48:22:1a:93:69:87:5d:72:60:1c:8b:8c:7a:
                    6f:17:3f:12:47:2c:66:51:2f:2b:b5:12:12:42:b3:
                    9d:7f:ad:1d:47:28:78:20:34:6b:59:47:57:07:c0:
                    b0:0e:22:8d:1c:32:63:9c:1a:59:a8:b2:1d:8b:30:
                    a9:a6:b3:4d:cc
                ASN1 OID: prime256v1
                NIST CURVE: P-256
        X509v3 extensions:
            X509v3 Basic Constraints: 
                CA:TRUE
            X509v3 Subject Key Identifier: 
                66:D7:88:7F:D5:A1:71:F9:7C:B7:0D:63:94:27:24:5F:5E:E3:82:E0
            X509v3 Authority Key Identifier: 
                FB:4F:43:99:C6:55:86:B5:00:91:E5:78:24:F2:37:12:5A:70:BD:9C
    Signature Algorithm: ecdsa-with-SHA256
    Signature Value:
        30:46:02:21:00:fd:de:50:2e:fb:84:df:18:31:be:27:e7:96:
        3c:0f:4b:d6:82:e6:71:cf:79:76:f6:7e:b7:2a:6e:16:fc:db:
        fc:02:21:00:ef:79:3e:9b:33:f0:fd:c4:07:50:d9:c0:bf:1d:
        f3:86:fd:3a:0a:f0:3e:b6:20:f2:91:00:9e:91:ff:d2:20:1e
-----BEGIN CERTIFICATE-----
MIICLDCCAdGgAwIBAgIBATAKBggqhkjOPQQDAjBvMQswCQYDVQQGEwJJVDEPMA0G
A1UECAwGSXRhbGlhMQ0wCwYDVQQHDARSb21hMR8wHQYDVQQKDBZNaW5pc3Rlcm8g
ZGVsbGEgU2FsdXRlMQswCQYDVQQLDAJNRTESMBAGA1UEAwwJbG9jYWxob3N0MB4X
DTIzMDgyMTEwMjYwM1oXDTI0MDgyMDEwMjYwM1owfTELMAkGA1UEBhMCSVQxDzAN
BgNVBAgMBkl0YWxpYTENMAsGA1UEBwwEUm9tYTEsMCoGA1UECgwjQWdlbnppYSBk
ZWxsZSBEb2dhbmUgZSBkZWkgTW9ub3BvbGkxDDAKBgNVBAsMA0FETTESMBAGA1UE
AwwJbG9jYWxob3N0MFkwEwYHKoZIzj0CAQYIKoZIzj0DAQcDQgAEmEgiGpNph11y
YByLjHpvFz8SRyxmUS8rtRISQrOdf60dRyh4IDRrWUdXB8CwDiKNHDJjnBpZqLId
izCpprNNzKNQME4wDAYDVR0TBAUwAwEB/zAdBgNVHQ4EFgQUZteIf9Whcfl8tw1j
lCckX17jguAwHwYDVR0jBBgwFoAU+09DmcZVhrUAkeV4JPI3ElpwvZwwCgYIKoZI
zj0EAwIDSQAwRgIhAP3eUC77hN8YMb4n55Y8D0vWguZxz3l29n63Km4W/Nv8AiEA
73k+mzPw/cQHUNnAvx3zhv06CvA+tiDykQCekf/SIB4=
-----END CERTIFICATE-----
