Certificate:
    Data:
        Version: 3 (0x2)
        Serial Number: 2 (0x2)
        Signature Algorithm: ecdsa-with-SHA256
        Issuer: C=IT, ST=Italia, L=Roma, O=Ministero della Salute, OU=MS, CN=localhost
        Validity
            Not Before: Aug 23 21:37:40 2023 GMT
            Not After : Feb 19 21:37:40 2024 GMT
        Subject: C=IT, ST=Italia, CN=localhost/nome=Victoria/cognome=Rossi/sesso=F/data_di_nascita=04-03-2023/luogo_di_nascita=Salerno/provincia_di_nascita=SA/codice_fiscale=RSSVTR23C41H703I/tampone=NULL/vaccino=BioNTech-Pfizer/organizzazione=Ministero della Salute
        Subject Public Key Info:
            Public Key Algorithm: id-ecPublicKey
                Public-Key: (256 bit)
                pub:
                    04:16:ab:9a:fc:68:53:9e:60:b5:ff:6c:4a:9a:94:
                    5e:65:17:a6:03:2b:11:12:12:e7:0f:c2:ac:6b:d7:
                    9c:62:7d:bc:85:88:1b:f9:40:89:cd:06:8d:ed:83:
                    3b:ac:8f:94:55:76:88:b7:71:7c:bb:64:95:51:53:
                    b8:1a:f1:b4:e9
                ASN1 OID: prime256v1
                NIST CURVE: P-256
        X509v3 extensions:
            X509v3 Basic Constraints: 
                CA:TRUE
            X509v3 Subject Key Identifier: 
                94:DA:02:FF:CE:8F:10:77:B3:0B:0A:FC:96:38:FF:9B:4C:8D:4F:12
            X509v3 Authority Key Identifier: 
                9C:91:33:7A:C1:06:12:0A:71:25:F8:71:17:FC:DB:CA:69:EA:1F:4F
    Signature Algorithm: ecdsa-with-SHA256
    Signature Value:
        30:46:02:21:00:9c:c1:2d:a6:5c:de:83:c2:14:b3:9e:b6:48:
        8e:f3:fa:9c:05:82:80:ac:08:01:91:10:73:35:ab:93:9c:35:
        3b:02:21:00:cb:0e:f3:d6:f4:fe:bd:6f:42:a3:a5:bd:a1:4e:
        73:1d:9e:27:2f:a6:ed:56:ec:d0:bc:aa:b7:b2:58:ea:be:44
-----BEGIN CERTIFICATE-----
MIICtDCCAlmgAwIBAgIBAjAKBggqhkjOPQQDAjBvMQswCQYDVQQGEwJJVDEPMA0G
A1UECAwGSXRhbGlhMQ0wCwYDVQQHDARSb21hMR8wHQYDVQQKDBZNaW5pc3Rlcm8g
ZGVsbGEgU2FsdXRlMQswCQYDVQQLDAJNUzESMBAGA1UEAwwJbG9jYWxob3N0MB4X
DTIzMDgyMzIxMzc0MFoXDTI0MDIxOTIxMzc0MFowggEDMQswCQYDVQQGEwJJVDEP
MA0GA1UECAwGSXRhbGlhMRIwEAYDVQQDDAlsb2NhbGhvc3QxEjAQBgQqAwEBDAhW
aWN0b3JpYTEPMA0GBCoDAQIMBVJvc3NpMQswCQYEKgMBAwwBRjEUMBIGBCoDAQQM
CjA0LTAzLTIwMjMxETAPBgQqAwEFDAdTYWxlcm5vMQwwCgYEKgMBBgwCU0ExGjAY
BgQqAwEHDBBSU1NWVFIyM0M0MUg3MDNJMQ4wDAYEKgMCAQwETlVMTDEZMBcGBCoD
AgIMD0Jpb05UZWNoLVBmaXplcjEfMB0GAyoDAwwWTWluaXN0ZXJvIGRlbGxhIFNh
bHV0ZTBZMBMGByqGSM49AgEGCCqGSM49AwEHA0IABBarmvxoU55gtf9sSpqUXmUX
pgMrERIS5w/CrGvXnGJ9vIWIG/lAic0Gje2DO6yPlFV2iLdxfLtklVFTuBrxtOmj
UDBOMAwGA1UdEwQFMAMBAf8wHQYDVR0OBBYEFJTaAv/OjxB3swsK/JY4/5tMjU8S
MB8GA1UdIwQYMBaAFJyRM3rBBhIKcSX4cRf828pp6h9PMAoGCCqGSM49BAMCA0kA
MEYCIQCcwS2mXN6DwhSznrZIjvP6nAWCgKwIAZEQczWrk5w1OwIhAMsO89b0/r1v
QqOlvaFOcx2eJy+m7Vbs0Lyqt7JY6r5E
-----END CERTIFICATE-----
