Certificate:
    Data:
        Version: 3 (0x2)
        Serial Number: 0 (0x0)
        Signature Algorithm: ecdsa-with-SHA256
        Issuer: C=IT, ST=Italia, L=Roma, O=Ministero della Salute, OU=ME, CN=localhost
        Validity
            Not Before: Aug 19 16:06:14 2023 GMT
            Not After : Aug 18 16:06:14 2024 GMT
        Subject: C=IT, ST=Italia, O=Mr. Joker's Casino, OU=Mr. Joker, CN=localhost
        Subject Public Key Info:
            Public Key Algorithm: id-ecPublicKey
                Public-Key: (256 bit)
                pub:
                    04:8f:80:e0:8d:51:d2:47:e4:1a:93:d1:ee:e3:dd:
                    ae:9b:06:db:de:26:46:30:8b:8e:d8:7b:7c:97:6d:
                    08:e2:6e:d0:94:63:f2:65:93:31:39:ce:b1:62:a8:
                    c7:ee:56:b0:c0:96:00:f1:d0:57:39:57:47:ca:91:
                    94:ef:71:06:42
                ASN1 OID: prime256v1
                NIST CURVE: P-256
        X509v3 extensions:
            X509v3 Basic Constraints: 
                CA:TRUE
            X509v3 Subject Key Identifier: 
                5B:3A:85:84:5C:88:5F:EB:B4:B7:0B:6E:DC:DF:64:AC:55:D4:DB:15
            X509v3 Authority Key Identifier: 
                FB:4F:43:99:C6:55:86:B5:00:91:E5:78:24:F2:37:12:5A:70:BD:9C
    Signature Algorithm: ecdsa-with-SHA256
    Signature Value:
        30:45:02:20:12:6f:f3:04:33:a9:63:56:5e:0e:0e:66:84:69:
        b5:ca:18:e5:d2:1b:f3:86:e9:78:d3:b9:60:26:2c:c3:3b:0f:
        02:21:00:98:a0:e7:fc:69:d6:47:c1:73:88:ae:19:df:e5:08:
        b6:b7:c4:75:85:aa:01:a2:11:ea:c3:3c:26:ff:9b:4a:b4
-----BEGIN CERTIFICATE-----
MIICETCCAbegAwIBAgIBADAKBggqhkjOPQQDAjBvMQswCQYDVQQGEwJJVDEPMA0G
A1UECAwGSXRhbGlhMQ0wCwYDVQQHDARSb21hMR8wHQYDVQQKDBZNaW5pc3Rlcm8g
ZGVsbGEgU2FsdXRlMQswCQYDVQQLDAJNRTESMBAGA1UEAwwJbG9jYWxob3N0MB4X
DTIzMDgxOTE2MDYxNFoXDTI0MDgxODE2MDYxNFowYzELMAkGA1UEBhMCSVQxDzAN
BgNVBAgMBkl0YWxpYTEbMBkGA1UECgwSTXIuIEpva2VyJ3MgQ2FzaW5vMRIwEAYD
VQQLDAlNci4gSm9rZXIxEjAQBgNVBAMMCWxvY2FsaG9zdDBZMBMGByqGSM49AgEG
CCqGSM49AwEHA0IABI+A4I1R0kfkGpPR7uPdrpsG294mRjCLjth7fJdtCOJu0JRj
8mWTMTnOsWKox+5WsMCWAPHQVzlXR8qRlO9xBkKjUDBOMAwGA1UdEwQFMAMBAf8w
HQYDVR0OBBYEFFs6hYRciF/rtLcLbtzfZKxV1NsVMB8GA1UdIwQYMBaAFPtPQ5nG
VYa1AJHleCTyNxJacL2cMAoGCCqGSM49BAMCA0gAMEUCIBJv8wQzqWNWXg4OZoRp
tcoY5dIb84bpeNO5YCYswzsPAiEAmKDn/GnWR8FziK4Z3+UItrfEdYWqAaIR6sM8
Jv+bSrQ=
-----END CERTIFICATE-----
