Certificate:
    Data:
        Version: 3 (0x2)
        Serial Number: 0 (0x0)
        Signature Algorithm: ecdsa-with-SHA256
        Issuer: C=IT, ST=Italia, L=Roma, O=Repubblica Italiana
        Validity
            Not Before: Aug 16 14:11:37 2023 GMT
            Not After : Aug 15 14:11:37 2024 GMT
        Subject: C=IT, ST=Italia, L=Roma, O=Ministero della Salute
        Subject Public Key Info:
            Public Key Algorithm: id-ecPublicKey
                Public-Key: (256 bit)
                pub:
                    04:32:fd:a6:c4:ba:9c:41:e6:5a:b7:85:96:2e:e5:
                    e5:f3:33:7d:ed:ee:5e:c6:a7:df:df:bd:fb:ec:bc:
                    73:27:d5:a7:27:e2:1a:f2:ba:0e:8d:0c:0e:4b:66:
                    01:24:8a:70:f4:1a:45:e8:43:75:42:04:92:bd:b8:
                    9d:ab:58:4f:41
                ASN1 OID: prime256v1
                NIST CURVE: P-256
        X509v3 extensions:
            X509v3 Basic Constraints: 
                CA:TRUE
            X509v3 Subject Key Identifier: 
                4A:E7:2E:E3:8C:83:B9:88:98:AD:40:16:1E:17:2B:A6:82:32:34:AE
            X509v3 Authority Key Identifier: 
                A7:85:E4:30:79:C7:B8:55:CC:29:53:57:21:48:58:4C:37:2A:29:AC
    Signature Algorithm: ecdsa-with-SHA256
    Signature Value:
        30:45:02:21:00:8b:9f:b3:1a:ff:c7:c2:ae:b4:31:21:cb:6f:
        2d:83:51:b0:fe:ec:41:89:23:27:f0:9a:e0:83:dc:ae:a5:bb:
        2a:02:20:77:85:55:0e:dc:4c:da:b8:a2:41:06:fe:39:71:96:
        bf:45:d3:ad:e1:73:a1:36:d7:c3:b4:4c:4c:be:97:c1:d6
-----BEGIN CERTIFICATE-----
MIIB2DCCAX6gAwIBAgIBADAKBggqhkjOPQQDAjBLMQswCQYDVQQGEwJJVDEPMA0G
A1UECAwGSXRhbGlhMQ0wCwYDVQQHDARSb21hMRwwGgYDVQQKDBNSZXB1YmJsaWNh
IEl0YWxpYW5hMB4XDTIzMDgxNjE0MTEzN1oXDTI0MDgxNTE0MTEzN1owTjELMAkG
A1UEBhMCSVQxDzANBgNVBAgMBkl0YWxpYTENMAsGA1UEBwwEUm9tYTEfMB0GA1UE
CgwWTWluaXN0ZXJvIGRlbGxhIFNhbHV0ZTBZMBMGByqGSM49AgEGCCqGSM49AwEH
A0IABDL9psS6nEHmWreFli7l5fMzfe3uXsan39+9++y8cyfVpyfiGvK6Do0MDktm
ASSKcPQaRehDdUIEkr24natYT0GjUDBOMAwGA1UdEwQFMAMBAf8wHQYDVR0OBBYE
FErnLuOMg7mImK1AFh4XK6aCMjSuMB8GA1UdIwQYMBaAFKeF5DB5x7hVzClTVyFI
WEw3KimsMAoGCCqGSM49BAMCA0gAMEUCIQCLn7Ma/8fCrrQxIctvLYNRsP7sQYkj
J/Ca4IPcrqW7KgIgd4VVDtxM2riiQQb+OXGWv0XTreFzoTbXw7RMTL6XwdY=
-----END CERTIFICATE-----
