Certificate:
    Data:
        Version: 3 (0x2)
        Serial Number: 1 (0x1)
        Signature Algorithm: ecdsa-with-SHA256
        Issuer: C=IT, ST=Italia, L=Roma, O=Ministero della Salute
        Validity
            Not Before: Aug 16 16:02:10 2023 GMT
            Not After : Feb 12 16:02:10 2024 GMT
        Subject: nome=Andrea Vincenzo/cognome=Ricciardi/sesso=M/data_di_nascita=20-03-2001/luogo_di_nascita=Salerno/provincia_di_nascita=SA/codice_fiscale=RCCNRV01C20H703U/tampone=NULL/vaccino=BioNTech-Pfizer/organizzazione=Ministero della Salute
        Subject Public Key Info:
            Public Key Algorithm: id-ecPublicKey
                Public-Key: (256 bit)
                pub:
                    04:77:4f:b5:0a:4a:88:98:f5:e0:06:44:2c:7e:96:
                    a7:40:7c:a8:3c:73:ea:c3:c5:73:c9:00:6f:10:a7:
                    fa:10:6d:09:26:78:8d:be:19:dd:f7:25:7b:1d:41:
                    da:f2:47:45:fc:6b:a9:b3:76:70:dd:db:5e:2b:d1:
                    c3:0b:29:b6:a4
                ASN1 OID: prime256v1
                NIST CURVE: P-256
        X509v3 extensions:
            X509v3 Basic Constraints: 
                CA:TRUE
            X509v3 Subject Key Identifier: 
                C6:2E:DB:45:8E:99:FF:B6:87:65:D1:B2:8D:A4:60:BE:67:92:FC:04
            X509v3 Authority Key Identifier: 
                4A:E7:2E:E3:8C:83:B9:88:98:AD:40:16:1E:17:2B:A6:82:32:34:AE
    Signature Algorithm: ecdsa-with-SHA256
    Signature Value:
        30:45:02:20:08:f3:94:91:6a:3c:52:67:81:65:5a:a8:0a:a6:
        a4:24:ee:da:48:34:55:41:40:45:57:62:2c:d9:5b:a6:77:48:
        02:21:00:af:64:13:74:26:70:d8:a4:8d:c5:b0:6c:6e:01:38:
        4a:79:83:23:20:02:fe:c8:33:9c:30:9a:af:0e:e9:6b:45
-----BEGIN CERTIFICATE-----
MIICajCCAhCgAwIBAgIBATAKBggqhkjOPQQDAjBOMQswCQYDVQQGEwJJVDEPMA0G
A1UECAwGSXRhbGlhMQ0wCwYDVQQHDARSb21hMR8wHQYDVQQKDBZNaW5pc3Rlcm8g
ZGVsbGEgU2FsdXRlMB4XDTIzMDgxNjE2MDIxMFoXDTI0MDIxMjE2MDIxMFowgdwx
GTAXBgQqAwEBDA9BbmRyZWEgVmluY2Vuem8xEzARBgQqAwECDAlSaWNjaWFyZGkx
CzAJBgQqAwEDDAFNMRQwEgYEKgMBBAwKMjAtMDMtMjAwMTERMA8GBCoDAQUMB1Nh
bGVybm8xDDAKBgQqAwEGDAJTQTEaMBgGBCoDAQcMEFJDQ05SVjAxQzIwSDcwM1Ux
DjAMBgQqAwIBDAROVUxMMRkwFwYEKgMCAgwPQmlvTlRlY2gtUGZpemVyMR8wHQYD
KgMDDBZNaW5pc3Rlcm8gZGVsbGEgU2FsdXRlMFkwEwYHKoZIzj0CAQYIKoZIzj0D
AQcDQgAEd0+1CkqImPXgBkQsfpanQHyoPHPqw8VzyQBvEKf6EG0JJniNvhnd9yV7
HUHa8kdF/Gups3Zw3dteK9HDCym2pKNQME4wDAYDVR0TBAUwAwEB/zAdBgNVHQ4E
FgQUxi7bRY6Z/7aHZdGyjaRgvmeS/AQwHwYDVR0jBBgwFoAUSucu44yDuYiYrUAW
HhcrpoIyNK4wCgYIKoZIzj0EAwIDSAAwRQIgCPOUkWo8UmeBZVqoCqakJO7aSDRV
QUBFV2Is2Vumd0gCIQCvZBN0JnDYpI3FsGxuAThKeYMjIAL+yDOcMJqvDulrRQ==
-----END CERTIFICATE-----
