-----BEGIN CERTIFICATE-----
MIIB7DCCAZGgAwIBAgIUeNtgEDgWib6AF5JN+/FAT/cje8gwCgYIKoZIzj0EAwIw
SzELMAkGA1UEBhMCSVQxDzANBgNVBAgMBkl0YWxpYTENMAsGA1UEBwwEUm9tYTEc
MBoGA1UECgwTUmVwdWJibGljYSBJdGFsaWFuYTAeFw0yMzA4MTYxMzU5MDhaFw0y
NDA4MTUxMzU5MDhaMEsxCzAJBgNVBAYTAklUMQ8wDQYDVQQIDAZJdGFsaWExDTAL
BgNVBAcMBFJvbWExHDAaBgNVBAoME1JlcHViYmxpY2EgSXRhbGlhbmEwWTATBgcq
hkjOPQIBBggqhkjOPQMBBwNCAATC14i4wC9SrKzDksaNmCq10hj7eZTNhCqmPCZ6
gAhn6CiJj7JDKvAr8hd5jRSlHoiFVK5cafgVmpPEk0SSuh7So1MwUTAdBgNVHQ4E
FgQUp4XkMHnHuFXMKVNXIUhYTDcqKawwHwYDVR0jBBgwFoAUp4XkMHnHuFXMKVNX
IUhYTDcqKawwDwYDVR0TAQH/BAUwAwEB/zAKBggqhkjOPQQDAgNJADBGAiEA3p7+
gSO0DtB/6a8TzvyOQHWluRBRkgO2uwjabhRfGiICIQCBXSz/perYtjxjuPGqxyAw
VSC5qSmgvz2zxIGgSrsJvw==
-----END CERTIFICATE-----
Certificate:
    Data:
        Version: 3 (0x2)
        Serial Number: 0 (0x0)
        Signature Algorithm: ecdsa-with-SHA256
        Issuer: C=IT, ST=Italia, L=Roma, O=Repubblica Italiana
        Validity
            Not Before: Aug 16 14:11:37 2023 GMT
            Not After : Aug 15 14:11:37 2024 GMT
        Subject: C=IT, ST=Italia, L=Roma, O=Ministero della Salute
        Subject Public Key Info:
            Public Key Algorithm: id-ecPublicKey
                Public-Key: (256 bit)
                pub:
                    04:32:fd:a6:c4:ba:9c:41:e6:5a:b7:85:96:2e:e5:
                    e5:f3:33:7d:ed:ee:5e:c6:a7:df:df:bd:fb:ec:bc:
                    73:27:d5:a7:27:e2:1a:f2:ba:0e:8d:0c:0e:4b:66:
                    01:24:8a:70:f4:1a:45:e8:43:75:42:04:92:bd:b8:
                    9d:ab:58:4f:41
                ASN1 OID: prime256v1
                NIST CURVE: P-256
        X509v3 extensions:
            X509v3 Basic Constraints: 
                CA:TRUE
            X509v3 Subject Key Identifier: 
                4A:E7:2E:E3:8C:83:B9:88:98:AD:40:16:1E:17:2B:A6:82:32:34:AE
            X509v3 Authority Key Identifier: 
                A7:85:E4:30:79:C7:B8:55:CC:29:53:57:21:48:58:4C:37:2A:29:AC
    Signature Algorithm: ecdsa-with-SHA256
    Signature Value:
        30:45:02:21:00:8b:9f:b3:1a:ff:c7:c2:ae:b4:31:21:cb:6f:
        2d:83:51:b0:fe:ec:41:89:23:27:f0:9a:e0:83:dc:ae:a5:bb:
        2a:02:20:77:85:55:0e:dc:4c:da:b8:a2:41:06:fe:39:71:96:
        bf:45:d3:ad:e1:73:a1:36:d7:c3:b4:4c:4c:be:97:c1:d6
-----BEGIN CERTIFICATE-----
MIIB2DCCAX6gAwIBAgIBADAKBggqhkjOPQQDAjBLMQswCQYDVQQGEwJJVDEPMA0G
A1UECAwGSXRhbGlhMQ0wCwYDVQQHDARSb21hMRwwGgYDVQQKDBNSZXB1YmJsaWNh
IEl0YWxpYW5hMB4XDTIzMDgxNjE0MTEzN1oXDTI0MDgxNTE0MTEzN1owTjELMAkG
A1UEBhMCSVQxDzANBgNVBAgMBkl0YWxpYTENMAsGA1UEBwwEUm9tYTEfMB0GA1UE
CgwWTWluaXN0ZXJvIGRlbGxhIFNhbHV0ZTBZMBMGByqGSM49AgEGCCqGSM49AwEH
A0IABDL9psS6nEHmWreFli7l5fMzfe3uXsan39+9++y8cyfVpyfiGvK6Do0MDktm
ASSKcPQaRehDdUIEkr24natYT0GjUDBOMAwGA1UdEwQFMAMBAf8wHQYDVR0OBBYE
FErnLuOMg7mImK1AFh4XK6aCMjSuMB8GA1UdIwQYMBaAFKeF5DB5x7hVzClTVyFI
WEw3KimsMAoGCCqGSM49BAMCA0gAMEUCIQCLn7Ma/8fCrrQxIctvLYNRsP7sQYkj
J/Ca4IPcrqW7KgIgd4VVDtxM2riiQQb+OXGWv0XTreFzoTbXw7RMTL6XwdY=
-----END CERTIFICATE-----
Certificate:
    Data:
        Version: 3 (0x2)
        Serial Number: 1 (0x1)
        Signature Algorithm: ecdsa-with-SHA256
        Issuer: C=IT, ST=Italia, L=Roma, O=Ministero della Salute
        Validity
            Not Before: Aug 16 16:02:10 2023 GMT
            Not After : Feb 12 16:02:10 2024 GMT
        Subject: nome=Andrea Vincenzo/cognome=Ricciardi/sesso=M/data_di_nascita=20-03-2001/luogo_di_nascita=Salerno/provincia_di_nascita=SA/codice_fiscale=RCCNRV01C20H703U/tampone=NULL/vaccino=BioNTech-Pfizer/organizzazione=Ministero della Salute
        Subject Public Key Info:
            Public Key Algorithm: id-ecPublicKey
                Public-Key: (256 bit)
                pub:
                    04:77:4f:b5:0a:4a:88:98:f5:e0:06:44:2c:7e:96:
                    a7:40:7c:a8:3c:73:ea:c3:c5:73:c9:00:6f:10:a7:
                    fa:10:6d:09:26:78:8d:be:19:dd:f7:25:7b:1d:41:
                    da:f2:47:45:fc:6b:a9:b3:76:70:dd:db:5e:2b:d1:
                    c3:0b:29:b6:a4
                ASN1 OID: prime256v1
                NIST CURVE: P-256
        X509v3 extensions:
            X509v3 Basic Constraints: 
                CA:TRUE
            X509v3 Subject Key Identifier: 
                C6:2E:DB:45:8E:99:FF:B6:87:65:D1:B2:8D:A4:60:BE:67:92:FC:04
            X509v3 Authority Key Identifier: 
                4A:E7:2E:E3:8C:83:B9:88:98:AD:40:16:1E:17:2B:A6:82:32:34:AE
    Signature Algorithm: ecdsa-with-SHA256
    Signature Value:
        30:45:02:20:08:f3:94:91:6a:3c:52:67:81:65:5a:a8:0a:a6:
        a4:24:ee:da:48:34:55:41:40:45:57:62:2c:d9:5b:a6:77:48:
        02:21:00:af:64:13:74:26:70:d8:a4:8d:c5:b0:6c:6e:01:38:
        4a:79:83:23:20:02:fe:c8:33:9c:30:9a:af:0e:e9:6b:45
-----BEGIN CERTIFICATE-----
MIICajCCAhCgAwIBAgIBATAKBggqhkjOPQQDAjBOMQswCQYDVQQGEwJJVDEPMA0G
A1UECAwGSXRhbGlhMQ0wCwYDVQQHDARSb21hMR8wHQYDVQQKDBZNaW5pc3Rlcm8g
ZGVsbGEgU2FsdXRlMB4XDTIzMDgxNjE2MDIxMFoXDTI0MDIxMjE2MDIxMFowgdwx
GTAXBgQqAwEBDA9BbmRyZWEgVmluY2Vuem8xEzARBgQqAwECDAlSaWNjaWFyZGkx
CzAJBgQqAwEDDAFNMRQwEgYEKgMBBAwKMjAtMDMtMjAwMTERMA8GBCoDAQUMB1Nh
bGVybm8xDDAKBgQqAwEGDAJTQTEaMBgGBCoDAQcMEFJDQ05SVjAxQzIwSDcwM1Ux
DjAMBgQqAwIBDAROVUxMMRkwFwYEKgMCAgwPQmlvTlRlY2gtUGZpemVyMR8wHQYD
KgMDDBZNaW5pc3Rlcm8gZGVsbGEgU2FsdXRlMFkwEwYHKoZIzj0CAQYIKoZIzj0D
AQcDQgAEd0+1CkqImPXgBkQsfpanQHyoPHPqw8VzyQBvEKf6EG0JJniNvhnd9yV7
HUHa8kdF/Gups3Zw3dteK9HDCym2pKNQME4wDAYDVR0TBAUwAwEB/zAdBgNVHQ4E
FgQUxi7bRY6Z/7aHZdGyjaRgvmeS/AQwHwYDVR0jBBgwFoAUSucu44yDuYiYrUAW
HhcrpoIyNK4wCgYIKoZIzj0EAwIDSAAwRQIgCPOUkWo8UmeBZVqoCqakJO7aSDRV
QUBFV2Is2Vumd0gCIQCvZBN0JnDYpI3FsGxuAThKeYMjIAL+yDOcMJqvDulrRQ==
-----END CERTIFICATE-----
