Certificate:
    Data:
        Version: 3 (0x2)
        Serial Number: 0 (0x0)
        Signature Algorithm: ecdsa-with-SHA256
        Issuer: C=IT, ST=Italia, L=Roma, O=Ministero della Salute, CN=localhost
        Validity
            Not Before: Aug 18 15:19:47 2023 GMT
            Not After : Feb 14 15:19:47 2024 GMT
        Subject: C=IT, ST=Italia, CN=localhost/nome=Andrea Vincenzo/cognome=Ricciardi/sesso=M/data_di_nascita=20-03-2001/luogo_di_nascita=Salerno/provincia_di_nascita=SA/codice_fiscale=RCCNRV01C20H703U/tampone=NULL/vaccino=BioNTech-Pfizer/organizzazione=Ministero della Salute
        Subject Public Key Info:
            Public Key Algorithm: id-ecPublicKey
                Public-Key: (256 bit)
                pub:
                    04:db:f7:b8:7e:ff:a1:31:37:25:70:57:61:c6:59:
                    93:df:be:f8:c8:45:5c:8a:0b:c9:57:71:5b:89:e1:
                    b2:b7:55:a3:6f:65:35:59:5d:80:c2:c0:03:d8:69:
                    5f:2b:2b:5a:50:10:6e:4b:28:b9:7c:59:d0:9b:cf:
                    ae:78:f6:71:fc
                ASN1 OID: prime256v1
                NIST CURVE: P-256
        X509v3 extensions:
            X509v3 Basic Constraints: 
                CA:TRUE
            X509v3 Subject Key Identifier: 
                EC:76:AA:41:08:93:C8:6D:96:9A:B7:A6:9F:40:72:57:33:91:AE:9A
            X509v3 Authority Key Identifier: 
                6A:32:1F:64:67:F9:0B:E1:9E:72:DB:2C:62:4F:29:FC:C0:07:AF:69
    Signature Algorithm: ecdsa-with-SHA256
    Signature Value:
        30:45:02:21:00:99:25:89:1a:fc:28:8c:83:f1:b1:8c:c5:af:
        d1:89:8d:a9:cd:af:2b:98:39:49:81:d5:9a:12:b2:df:e6:c2:
        9a:02:20:1a:5b:ad:44:3b:f6:df:d7:68:22:1c:0d:5d:1d:40:
        a1:e2:36:71:a0:b3:f9:3f:11:b1:b8:6f:cd:e2:57:5f:05
-----BEGIN CERTIFICATE-----
MIICsTCCAlegAwIBAgIBADAKBggqhkjOPQQDAjBiMQswCQYDVQQGEwJJVDEPMA0G
A1UECAwGSXRhbGlhMQ0wCwYDVQQHDARSb21hMR8wHQYDVQQKDBZNaW5pc3Rlcm8g
ZGVsbGEgU2FsdXRlMRIwEAYDVQQDDAlsb2NhbGhvc3QwHhcNMjMwODE4MTUxOTQ3
WhcNMjQwMjE0MTUxOTQ3WjCCAQ4xCzAJBgNVBAYTAklUMQ8wDQYDVQQIDAZJdGFs
aWExEjAQBgNVBAMMCWxvY2FsaG9zdDEZMBcGBCoDAQEMD0FuZHJlYSBWaW5jZW56
bzETMBEGBCoDAQIMCVJpY2NpYXJkaTELMAkGBCoDAQMMAU0xFDASBgQqAwEEDAoy
MC0wMy0yMDAxMREwDwYEKgMBBQwHU2FsZXJubzEMMAoGBCoDAQYMAlNBMRowGAYE
KgMBBwwQUkNDTlJWMDFDMjBINzAzVTEOMAwGBCoDAgEMBE5VTEwxGTAXBgQqAwIC
DA9CaW9OVGVjaC1QZml6ZXIxHzAdBgMqAwMMFk1pbmlzdGVybyBkZWxsYSBTYWx1
dGUwWTATBgcqhkjOPQIBBggqhkjOPQMBBwNCAATb97h+/6ExNyVwV2HGWZPfvvjI
RVyKC8lXcVuJ4bK3VaNvZTVZXYDCwAPYaV8rK1pQEG5LKLl8WdCbz6549nH8o1Aw
TjAMBgNVHRMEBTADAQH/MB0GA1UdDgQWBBTsdqpBCJPIbZaat6afQHJXM5GumjAf
BgNVHSMEGDAWgBRqMh9kZ/kL4Z5y2yxiTyn8wAevaTAKBggqhkjOPQQDAgNIADBF
AiEAmSWJGvwojIPxsYzFr9GJjanNryuYOUmB1ZoSst/mwpoCIBpbrUQ79t/XaCIc
DV0dQKHiNnGgs/k/EbG4b83iV18F
-----END CERTIFICATE-----
