Certificate:
    Data:
        Version: 3 (0x2)
        Serial Number: 1 (0x1)
        Signature Algorithm: ecdsa-with-SHA256
        Issuer: C=IT, ST=Italia, L=Roma, O=Ministero della Salute, CN=localhost
        Validity
            Not Before: Aug 18 17:48:16 2023 GMT
            Not After : Feb 14 17:48:16 2024 GMT
        Subject: C=IT, ST=Italia, O=Mr. Joker's Casino, CN=localhost
        Subject Public Key Info:
            Public Key Algorithm: id-ecPublicKey
                Public-Key: (256 bit)
                pub:
                    04:39:d8:23:ef:77:54:d6:8f:c4:5c:f4:b7:f2:eb:
                    ac:3b:b2:32:fd:d9:c4:0d:d1:9b:ba:61:cd:cb:85:
                    c1:e2:56:09:f9:76:c6:82:f3:f8:14:e4:3d:95:bb:
                    ad:55:6a:e7:ea:4b:e3:68:1e:41:c3:bd:bd:59:fa:
                    d6:46:1e:11:79
                ASN1 OID: prime256v1
                NIST CURVE: P-256
        X509v3 extensions:
            X509v3 Basic Constraints: 
                CA:TRUE
            X509v3 Subject Key Identifier: 
                17:2D:FF:23:B0:AE:38:1B:D6:7E:4B:6E:AE:17:9B:14:11:3D:C0:E5
            X509v3 Authority Key Identifier: 
                6A:32:1F:64:67:F9:0B:E1:9E:72:DB:2C:62:4F:29:FC:C0:07:AF:69
    Signature Algorithm: ecdsa-with-SHA256
    Signature Value:
        30:46:02:21:00:c0:d4:60:09:c4:25:78:d9:e4:8b:2a:03:03:
        ff:f6:82:a6:c1:30:96:3a:43:ab:2a:b1:c1:86:df:8b:f5:15:
        81:02:21:00:9d:0d:96:2e:1c:ae:d2:48:67:aa:ab:09:0f:93:
        33:f8:20:39:11:96:29:15:eb:49:44:1f:ee:7e:a3:ef:b7:c2
-----BEGIN CERTIFICATE-----
MIIB8TCCAZagAwIBAgIBATAKBggqhkjOPQQDAjBiMQswCQYDVQQGEwJJVDEPMA0G
A1UECAwGSXRhbGlhMQ0wCwYDVQQHDARSb21hMR8wHQYDVQQKDBZNaW5pc3Rlcm8g
ZGVsbGEgU2FsdXRlMRIwEAYDVQQDDAlsb2NhbGhvc3QwHhcNMjMwODE4MTc0ODE2
WhcNMjQwMjE0MTc0ODE2WjBPMQswCQYDVQQGEwJJVDEPMA0GA1UECAwGSXRhbGlh
MRswGQYDVQQKDBJNci4gSm9rZXIncyBDYXNpbm8xEjAQBgNVBAMMCWxvY2FsaG9z
dDBZMBMGByqGSM49AgEGCCqGSM49AwEHA0IABDnYI+93VNaPxFz0t/LrrDuyMv3Z
xA3Rm7phzcuFweJWCfl2xoLz+BTkPZW7rVVq5+pL42geQcO9vVn61kYeEXmjUDBO
MAwGA1UdEwQFMAMBAf8wHQYDVR0OBBYEFBct/yOwrjgb1n5Lbq4XmxQRPcDlMB8G
A1UdIwQYMBaAFGoyH2Rn+QvhnnLbLGJPKfzAB69pMAoGCCqGSM49BAMCA0kAMEYC
IQDA1GAJxCV42eSLKgMD//aCpsEwljpDqyqxwYbfi/UVgQIhAJ0Nli4crtJIZ6qr
CQ+TM/ggORGWKRXrSUQf7n6j77fC
-----END CERTIFICATE-----
