Certificate:
    Data:
        Version: 3 (0x2)
        Serial Number: 0 (0x0)
        Signature Algorithm: ecdsa-with-SHA256
        Issuer: C=IT, ST=Italia, L=Roma, O=Ministero della Salute, OU=MS, CN=localhost
        Validity
            Not Before: Aug 19 16:04:33 2023 GMT
            Not After : Feb 15 16:04:33 2024 GMT
        Subject: C=IT, ST=Italia, CN=localhost/nome=Andrea Vincenzo/cognome=Ricciardi/sesso=M/data_di_nascita=20-03-2001/luogo_di_nascita=Salerno/provincia_di_nascita=SA/codice_fiscale=RCCNRV01C20H703U/tampone=NULL/vaccino=BioNTech-Pfizer/organizzazione=Ministero della Salute
        Subject Public Key Info:
            Public Key Algorithm: id-ecPublicKey
                Public-Key: (256 bit)
                pub:
                    04:be:b1:23:16:bc:1b:82:95:6d:da:8c:1d:bf:d4:
                    09:b4:8a:a2:c0:bf:cc:d2:0f:a9:a2:c8:ec:30:ff:
                    49:37:ea:de:74:e2:e2:ec:c5:01:b5:a1:f3:e9:00:
                    40:da:ff:b9:86:f0:b8:86:46:75:8f:29:9d:89:27:
                    7c:45:03:26:eb
                ASN1 OID: prime256v1
                NIST CURVE: P-256
        X509v3 extensions:
            X509v3 Basic Constraints: 
                CA:TRUE
            X509v3 Subject Key Identifier: 
                D2:43:B2:10:3F:72:82:F3:53:E3:48:18:6D:C3:E7:3C:30:21:24:10
            X509v3 Authority Key Identifier: 
                9C:91:33:7A:C1:06:12:0A:71:25:F8:71:17:FC:DB:CA:69:EA:1F:4F
    Signature Algorithm: ecdsa-with-SHA256
    Signature Value:
        30:45:02:21:00:df:43:2c:5e:c4:d2:bb:ea:0b:d8:53:78:40:
        e9:f8:72:e3:9d:30:16:95:2b:9a:fa:2d:a1:05:32:3e:cf:4c:
        d5:02:20:67:0d:98:e5:f7:f8:c5:18:90:5c:12:79:ad:2a:c1:
        71:1a:2a:e8:a7:05:d9:83:25:24:49:34:de:73:8c:fd:10
-----BEGIN CERTIFICATE-----
MIICvjCCAmSgAwIBAgIBADAKBggqhkjOPQQDAjBvMQswCQYDVQQGEwJJVDEPMA0G
A1UECAwGSXRhbGlhMQ0wCwYDVQQHDARSb21hMR8wHQYDVQQKDBZNaW5pc3Rlcm8g
ZGVsbGEgU2FsdXRlMQswCQYDVQQLDAJNUzESMBAGA1UEAwwJbG9jYWxob3N0MB4X
DTIzMDgxOTE2MDQzM1oXDTI0MDIxNTE2MDQzM1owggEOMQswCQYDVQQGEwJJVDEP
MA0GA1UECAwGSXRhbGlhMRIwEAYDVQQDDAlsb2NhbGhvc3QxGTAXBgQqAwEBDA9B
bmRyZWEgVmluY2Vuem8xEzARBgQqAwECDAlSaWNjaWFyZGkxCzAJBgQqAwEDDAFN
MRQwEgYEKgMBBAwKMjAtMDMtMjAwMTERMA8GBCoDAQUMB1NhbGVybm8xDDAKBgQq
AwEGDAJTQTEaMBgGBCoDAQcMEFJDQ05SVjAxQzIwSDcwM1UxDjAMBgQqAwIBDARO
VUxMMRkwFwYEKgMCAgwPQmlvTlRlY2gtUGZpemVyMR8wHQYDKgMDDBZNaW5pc3Rl
cm8gZGVsbGEgU2FsdXRlMFkwEwYHKoZIzj0CAQYIKoZIzj0DAQcDQgAEvrEjFrwb
gpVt2owdv9QJtIqiwL/M0g+posjsMP9JN+redOLi7MUBtaHz6QBA2v+5hvC4hkZ1
jymdiSd8RQMm66NQME4wDAYDVR0TBAUwAwEB/zAdBgNVHQ4EFgQU0kOyED9ygvNT
40gYbcPnPDAhJBAwHwYDVR0jBBgwFoAUnJEzesEGEgpxJfhxF/zbymnqH08wCgYI
KoZIzj0EAwIDSAAwRQIhAN9DLF7E0rvqC9hTeEDp+HLjnTAWlSua+i2hBTI+z0zV
AiBnDZjl9/jFGJBcEnmtKsFxGiropwXZgyUkSTTec4z9EA==
-----END CERTIFICATE-----
