Certificate:
    Data:
        Version: 3 (0x2)
        Serial Number: 1 (0x1)
        Signature Algorithm: ecdsa-with-SHA256
        Issuer: C=IT, ST=Italia, L=Roma, O=Ministero della Salute, OU=MS, CN=localhost
        Validity
            Not Before: Aug 20 12:00:00 2023 GMT
            Not After : Aug 22 12:00:00 2023 GMT
        Subject: C=IT, ST=Italia, CN=localhost/nome=Mario/cognome=Rossi/sesso=M/data_di_nascita=01-01-1980/luogo_di_nascita=Roma/provincia_di_nascita=RM/codice_fiscale=RSSMRA80A01H501U/tampone=Rapido/vaccino=NULL/organizzazione=Ministero della Salute
        Subject Public Key Info:
            Public Key Algorithm: id-ecPublicKey
                Public-Key: (256 bit)
                pub:
                    04:3f:4a:f3:45:55:aa:98:8a:e0:c7:0e:b7:8b:d8:
                    25:d0:94:dc:6e:4f:1f:0b:02:45:4d:31:82:c8:12:
                    c4:b8:1c:21:08:1a:3e:a5:f8:3f:2c:bf:65:80:02:
                    66:c7:ed:5a:e4:a5:db:50:47:d2:d7:f0:75:2b:38:
                    1a:76:2a:3c:8c
                ASN1 OID: prime256v1
                NIST CURVE: P-256
        X509v3 extensions:
            X509v3 Basic Constraints: 
                CA:TRUE
            X509v3 Subject Key Identifier: 
                CA:0F:66:E4:A1:47:F1:38:A4:EE:78:28:F9:7A:93:DF:17:4D:FD:57
            X509v3 Authority Key Identifier: 
                9C:91:33:7A:C1:06:12:0A:71:25:F8:71:17:FC:DB:CA:69:EA:1F:4F
    Signature Algorithm: ecdsa-with-SHA256
    Signature Value:
        30:44:02:20:59:bd:8a:3b:1e:7a:d2:ff:c9:51:60:ab:59:91:
        b4:03:f1:e3:a6:b7:88:3c:f0:3f:99:40:b7:62:75:96:48:69:
        02:20:38:ae:b5:19:2f:56:c3:ab:81:6f:ad:23:65:7f:c5:44:
        bc:f3:c9:27:76:7e:ab:1e:0a:e8:b2:41:93:43:03:fc
-----BEGIN CERTIFICATE-----
MIICojCCAkmgAwIBAgIBATAKBggqhkjOPQQDAjBvMQswCQYDVQQGEwJJVDEPMA0G
A1UECAwGSXRhbGlhMQ0wCwYDVQQHDARSb21hMR8wHQYDVQQKDBZNaW5pc3Rlcm8g
ZGVsbGEgU2FsdXRlMQswCQYDVQQLDAJNUzESMBAGA1UEAwwJbG9jYWxob3N0MB4X
DTIzMDgyMDEyMDAwMFoXDTIzMDgyMjEyMDAwMFowgfQxCzAJBgNVBAYTAklUMQ8w
DQYDVQQIDAZJdGFsaWExEjAQBgNVBAMMCWxvY2FsaG9zdDEPMA0GBCoDAQEMBU1h
cmlvMQ8wDQYEKgMBAgwFUm9zc2kxCzAJBgQqAwEDDAFNMRQwEgYEKgMBBAwKMDEt
MDEtMTk4MDEOMAwGBCoDAQUMBFJvbWExDDAKBgQqAwEGDAJSTTEaMBgGBCoDAQcM
EFJTU01SQTgwQTAxSDUwMVUxEDAOBgQqAwIBDAZSYXBpZG8xDjAMBgQqAwICDARO
VUxMMR8wHQYDKgMDDBZNaW5pc3Rlcm8gZGVsbGEgU2FsdXRlMFkwEwYHKoZIzj0C
AQYIKoZIzj0DAQcDQgAEP0rzRVWqmIrgxw63i9gl0JTcbk8fCwJFTTGCyBLEuBwh
CBo+pfg/LL9lgAJmx+1a5KXbUEfS1/B1Kzgadio8jKNQME4wDAYDVR0TBAUwAwEB
/zAdBgNVHQ4EFgQUyg9m5KFH8Tik7ngo+XqT3xdN/VcwHwYDVR0jBBgwFoAUnJEz
esEGEgpxJfhxF/zbymnqH08wCgYIKoZIzj0EAwIDRwAwRAIgWb2KOx560v/JUWCr
WZG0A/HjpreIPPA/mUC3YnWWSGkCIDiutRkvVsOrgW+tI2V/xUS888kndn6rHgro
skGTQwP8
-----END CERTIFICATE-----
